; Function Attrs: mustprogress nounwind uwtable
define noundef zeroext i1 @_ZN3gmx20equalCaseInsensitiveERKNSt7__cxx1112basic_stringIcSt11char_traitsIcESaIcEEES7_(ptr noundef nonnull align 8 dereferenceable(32) %0, ptr noundef nonnull align 8 dereferenceable(32) %1) local_unnamed_addr #3 {
  %3 = tail call noundef i64 @_ZNKSt7__cxx1112basic_stringIcSt11char_traitsIcESaIcEE6lengthEv(ptr noundef nonnull align 8 dereferenceable(32) %0) #22
  %4 = tail call noundef i64 @_ZNKSt7__cxx1112basic_stringIcSt11char_traitsIcESaIcEE6lengthEv(ptr noundef nonnull align 8 dereferenceable(32) %1) #22
  %5 = icmp eq i64 %3, %4
  br i1 %5, label %6, label %"_ZSt5equalIN9__gnu_cxx17__normal_iteratorIPKcNSt7__cxx1112basic_stringIcSt11char_traitsIcESaIcEEEEESA_ZN3gmx20equalCaseInsensitiveERKS9_SD_E3$_0EbT_SF_T0_T1_.exit"

6:                                                ; preds = %2
  %7 = tail call ptr @_ZNKSt7__cxx1112basic_stringIcSt11char_traitsIcESaIcEE5beginEv(ptr noundef nonnull align 8 dereferenceable(32) %0) #22
  %8 = tail call ptr @_ZNKSt7__cxx1112basic_stringIcSt11char_traitsIcESaIcEE3endEv(ptr noundef nonnull align 8 dereferenceable(32) %0) #22
  %9 = tail call ptr @_ZNKSt7__cxx1112basic_stringIcSt11char_traitsIcESaIcEE5beginEv(ptr noundef nonnull align 8 dereferenceable(32) %1) #22
  %.not7.i = icmp eq ptr %7, %8
  br i1 %.not7.i, label %"_ZSt5equalIN9__gnu_cxx17__normal_iteratorIPKcNSt7__cxx1112basic_stringIcSt11char_traitsIcESaIcEEEEESA_ZN3gmx20equalCaseInsensitiveERKS9_SD_E3$_0EbT_SF_T0_T1_.exit", label %.lr.ph.i

.lr.ph.i:                                         ; preds = %6, %.lr.ph.i
  %.sroa.0.09.i = phi ptr [ %16, %.lr.ph.i ], [ %9, %6 ]
  %.sroa.04.08.i = phi ptr [ %15, %.lr.ph.i ], [ %7, %6 ]
  %.val.i = load i8, ptr %.sroa.04.08.i, align 1
  %.val1.i = load i8, ptr %.sroa.0.09.i, align 1
  %10 = sext i8 %.val.i to i32
  %11 = tail call i32 @tolower(i32 noundef %10) #21
  %12 = sext i8 %.val1.i to i32
  %13 = tail call i32 @tolower(i32 noundef %12) #21
  %14 = icmp eq i32 %11, %13
  %15 = getelementptr inbounds i8, ptr %.sroa.04.08.i, i64 1
  %16 = getelementptr inbounds i8, ptr %.sroa.0.09.i, i64 1
  %.not.i = icmp ne ptr %15, %8
  %or.cond.not = select i1 %14, i1 %.not.i, i1 false
  br i1 %or.cond.not, label %.lr.ph.i, label %"_ZSt5equalIN9__gnu_cxx17__normal_iteratorIPKcNSt7__cxx1112basic_stringIcSt11char_traitsIcESaIcEEEEESA_ZN3gmx20equalCaseInsensitiveERKS9_SD_E3$_0EbT_SF_T0_T1_.exit", !llvm.loop !19

"_ZSt5equalIN9__gnu_cxx17__normal_iteratorIPKcNSt7__cxx1112basic_stringIcSt11char_traitsIcESaIcEEEEESA_ZN3gmx20equalCaseInsensitiveERKS9_SD_E3$_0EbT_SF_T0_T1_.exit": ; preds = %.lr.ph.i, %6, %2
  %17 = phi i1 [ false, %2 ], [ true, %6 ], [ %14, %.lr.ph.i ]
  ret i1 %17
}